target datalayout = "e-m:e-p270:32:32-p271:32:32-p272:64:64-i64:64-i128:128-f80:128-n8:16:32:64-S128"
target triple = "x86_64-pc-linux-gnu"

%struct.mz_zip_archive_tag = type { i64, i64, i32, i32, i32, ptr, ptr, ptr, ptr, ptr, ptr, ptr, ptr }
%struct.mz_zip_array = type { ptr, i64, i64, i32 }

; Function Attrs: mustprogress uwtable
define internal noundef i32 @_ZL28mz_zip_array_ensure_capacityP18mz_zip_archive_tagP12mz_zip_arraymj(ptr noundef %0, ptr noundef %1, i64 noundef %2, i32 noundef %3) #5 {
  %5 = alloca i32, align 4
  %6 = alloca ptr, align 8
  %7 = alloca ptr, align 8
  %8 = alloca i64, align 8
  %9 = alloca i32, align 4
  %10 = alloca ptr, align 8
  %11 = alloca i64, align 8
  store ptr %0, ptr %6, align 8
  store ptr %1, ptr %7, align 8
  store i64 %2, ptr %8, align 8
  store i32 %3, ptr %9, align 4
  %12 = load i64, ptr %8, align 8
  store i64 %12, ptr %11, align 8
  %13 = load ptr, ptr %7, align 8
  %14 = getelementptr inbounds %struct.mz_zip_array, ptr %13, i32 0, i32 2
  %15 = load i64, ptr %14, align 8
  %16 = load i64, ptr %8, align 8
  %17 = icmp uge i64 %15, %16
  br i1 %17, label %18, label %19

18:                                               ; preds = %4
  store i32 1, ptr %5, align 4
  br label %67

19:                                               ; preds = %4
  %20 = load i32, ptr %9, align 4
  %21 = icmp ne i32 %20, 0
  br i1 %21, label %22, label %42

22:                                               ; preds = %19
  %23 = load ptr, ptr %7, align 8
  %24 = getelementptr inbounds %struct.mz_zip_array, ptr %23, i32 0, i32 2
  %25 = load i64, ptr %24, align 8
  %26 = icmp ugt i64 1, %25
  br i1 %26, label %27, label %28

27:                                               ; preds = %22
  br label %32

28:                                               ; preds = %22
  %29 = load ptr, ptr %7, align 8
  %30 = getelementptr inbounds %struct.mz_zip_array, ptr %29, i32 0, i32 2
  %31 = load i64, ptr %30, align 8
  br label %32

32:                                               ; preds = %28, %27
  %33 = phi i64 [ 1, %27 ], [ %31, %28 ]
  store i64 %33, ptr %11, align 8
  br label %34

34:                                               ; preds = %38, %32
  %35 = load i64, ptr %11, align 8
  %36 = load i64, ptr %8, align 8
  %37 = icmp ult i64 %35, %36
  br i1 %37, label %38, label %41

38:                                               ; preds = %34
  %39 = load i64, ptr %11, align 8
  %40 = mul i64 %39, 2
  store i64 %40, ptr %11, align 8
  br label %34, !llvm.loop !193

41:                                               ; preds = %34
  br label %42

42:                                               ; preds = %41, %19
  %43 = load ptr, ptr %6, align 8
  %44 = getelementptr inbounds %struct.mz_zip_archive_tag, ptr %43, i32 0, i32 7
  %45 = load ptr, ptr %44, align 8
  %46 = load ptr, ptr %6, align 8
  %47 = getelementptr inbounds %struct.mz_zip_archive_tag, ptr %46, i32 0, i32 8
  %48 = load ptr, ptr %47, align 8
  %49 = load ptr, ptr %7, align 8
  %50 = getelementptr inbounds %struct.mz_zip_array, ptr %49, i32 0, i32 0
  %51 = load ptr, ptr %50, align 8
  %52 = load ptr, ptr %7, align 8
  %53 = getelementptr inbounds %struct.mz_zip_array, ptr %52, i32 0, i32 3
  %54 = load i32, ptr %53, align 8
  %55 = zext i32 %54 to i64
  %56 = load i64, ptr %11, align 8
  %57 = call noundef ptr %45(ptr noundef %48, ptr noundef %51, i64 noundef %55, i64 noundef %56)
  store ptr %57, ptr %10, align 8
  %58 = icmp eq ptr null, %57
  br i1 %58, label %59, label %60

59:                                               ; preds = %42
  store i32 0, ptr %5, align 4
  br label %67

60:                                               ; preds = %42
  %61 = load ptr, ptr %10, align 8
  %62 = load ptr, ptr %7, align 8
  %63 = getelementptr inbounds %struct.mz_zip_array, ptr %62, i32 0, i32 0
  store ptr %61, ptr %63, align 8
  %64 = load i64, ptr %11, align 8
  %65 = load ptr, ptr %7, align 8
  %66 = getelementptr inbounds %struct.mz_zip_array, ptr %65, i32 0, i32 2
  store i64 %64, ptr %66, align 8
  store i32 1, ptr %5, align 4
  br label %67

67:                                               ; preds = %60, %59, %18
  %68 = load i32, ptr %5, align 4
  ret i32 %68
}